target datalayout = "e-m:e-p270:32:32-p271:32:32-p272:64:64-i64:64-i128:128-f80:128-n8:16:32:64-S128"
target triple = "x86_64-pc-linux-gnu"

%struct.mi_os_mem_config_s = type { i64, i64, i64, i64, i64, i8, i8, i8 }

@.str.3 = private unnamed_addr constant [31 x i8] c"/proc/sys/vm/overcommit_memory\00", align 1

; Function Attrs: inlinehint nounwind uwtable
define internal i32 @mi_prim_close(i32 noundef %0) #5 {
  %2 = alloca i32, align 4
  store i32 %0, ptr %2, align 4, !tbaa !19
  %3 = load i32, ptr %2, align 4, !tbaa !19
  %4 = call i64 (i64, ...) @syscall(i64 noundef 3, i32 noundef %3) #7
  %5 = trunc i64 %4 to i32
  ret i32 %5
}

; Function Attrs: inlinehint nounwind uwtable
define internal i64 @mi_prim_read(i32 noundef %0, ptr noundef %1, i64 noundef %2) #5 {
  %4 = alloca i32, align 4
  %5 = alloca ptr, align 8
  %6 = alloca i64, align 8
  store i32 %0, ptr %4, align 4, !tbaa !19
  store ptr %1, ptr %5, align 8, !tbaa !25
  store i64 %2, ptr %6, align 8, !tbaa !8
  %7 = load i32, ptr %4, align 4, !tbaa !19
  %8 = load ptr, ptr %5, align 8, !tbaa !25
  %9 = load i64, ptr %6, align 8, !tbaa !8
  %10 = call i64 (i64, ...) @syscall(i64 noundef 0, i32 noundef %7, ptr noundef %8, i64 noundef %9) #7
  ret i64 %10
}

; Function Attrs: inlinehint nounwind uwtable
define internal i32 @mi_prim_open(ptr noundef %0, i32 noundef %1) #5 {
  %3 = alloca ptr, align 8
  %4 = alloca i32, align 4
  store ptr %0, ptr %3, align 8, !tbaa !35
  store i32 %1, ptr %4, align 4, !tbaa !19
  %5 = load ptr, ptr %3, align 8, !tbaa !35
  %6 = load i32, ptr %4, align 4, !tbaa !19
  %7 = call i64 (i64, ...) @syscall(i64 noundef 2, ptr noundef %5, i32 noundef %6, i32 noundef 0) #7
  %8 = trunc i64 %7 to i32
  ret i32 %8
}

; Function Attrs: nounwind uwtable
define internal zeroext i1 @unix_detect_overcommit() #0 {
  %1 = alloca i8, align 1
  %2 = alloca i32, align 4
  %3 = alloca [32 x i8], align 16
  %4 = alloca i64, align 8
  call void @llvm.lifetime.start.p0(i64 1, ptr %1) #6
  store i8 1, ptr %1, align 1, !tbaa !21
  call void @llvm.lifetime.start.p0(i64 4, ptr %2) #6
  %5 = call i32 @mi_prim_open(ptr noundef @.str.3, i32 noundef 0) #8
  store i32 %5, ptr %2, align 4, !tbaa !19
  %6 = load i32, ptr %2, align 4, !tbaa !19
  %7 = icmp sge i32 %6, 0
  br i1 %7, label %8, label %29

8:                                                ; preds = %0
  call void @llvm.lifetime.start.p0(i64 32, ptr %3) #6
  call void @llvm.lifetime.start.p0(i64 8, ptr %4) #6
  %9 = load i32, ptr %2, align 4, !tbaa !19
  %10 = call i64 @mi_prim_read(i32 noundef %9, ptr noundef %3, i64 noundef 32) #8
  store i64 %10, ptr %4, align 8, !tbaa !8
  %11 = load i32, ptr %2, align 4, !tbaa !19
  %12 = call i32 @mi_prim_close(i32 noundef %11) #8
  %13 = load i64, ptr %4, align 8, !tbaa !8
  %14 = icmp sge i64 %13, 1
  br i1 %14, label %15, label %28

15:                                               ; preds = %8
  %16 = getelementptr inbounds [32 x i8], ptr %3, i64 0, i64 0
  %17 = load i8, ptr %16, align 16, !tbaa !22
  %18 = sext i8 %17 to i32
  %19 = icmp eq i32 %18, 48
  br i1 %19, label %25, label %20

20:                                               ; preds = %15
  %21 = getelementptr inbounds [32 x i8], ptr %3, i64 0, i64 0
  %22 = load i8, ptr %21, align 16, !tbaa !22
  %23 = sext i8 %22 to i32
  %24 = icmp eq i32 %23, 49
  br label %25

25:                                               ; preds = %20, %15
  %26 = phi i1 [ true, %15 ], [ %24, %20 ]
  %27 = zext i1 %26 to i8
  store i8 %27, ptr %1, align 1, !tbaa !21
  br label %28

28:                                               ; preds = %25, %8
  call void @llvm.lifetime.end.p0(i64 8, ptr %4) #6
  call void @llvm.lifetime.end.p0(i64 32, ptr %3) #6
  br label %29

29:                                               ; preds = %28, %0
  %30 = load i8, ptr %1, align 1, !tbaa !21, !range !23, !noundef !24
  %31 = trunc i8 %30 to i1
  call void @llvm.lifetime.end.p0(i64 4, ptr %2) #6
  call void @llvm.lifetime.end.p0(i64 1, ptr %1) #6
  ret i1 %31
}

; Function Attrs: nounwind uwtable
define hidden void @_mi_prim_mem_init(ptr noundef %0) #0 {
  %2 = alloca ptr, align 8
  %3 = alloca i64, align 8
  %4 = alloca i64, align 8
  %5 = alloca i32, align 4
  store ptr %0, ptr %2, align 8, !tbaa !3
  call void @llvm.lifetime.start.p0(i64 8, ptr %3) #6
  %6 = call i64 @sysconf(i32 noundef 30) #7
  store i64 %6, ptr %3, align 8, !tbaa !8
  %7 = load i64, ptr %3, align 8, !tbaa !8
  %8 = icmp sgt i64 %7, 0
  br i1 %8, label %9, label %31

9:                                                ; preds = %1
  %10 = load i64, ptr %3, align 8, !tbaa !8
  %11 = load ptr, ptr %2, align 8, !tbaa !3
  %12 = getelementptr inbounds nuw %struct.mi_os_mem_config_s, ptr %11, i32 0, i32 0
  store i64 %10, ptr %12, align 8, !tbaa !10
  %13 = load i64, ptr %3, align 8, !tbaa !8
  %14 = load ptr, ptr %2, align 8, !tbaa !3
  %15 = getelementptr inbounds nuw %struct.mi_os_mem_config_s, ptr %14, i32 0, i32 2
  store i64 %13, ptr %15, align 8, !tbaa !13
  call void @llvm.lifetime.start.p0(i64 8, ptr %4) #6
  %16 = call i64 @sysconf(i32 noundef 85) #7
  store i64 %16, ptr %4, align 8, !tbaa !8
  %17 = load i64, ptr %4, align 8, !tbaa !8
  %18 = icmp sgt i64 %17, 0
  br i1 %18, label %19, label %30

19:                                               ; preds = %9
  %20 = load i64, ptr %4, align 8, !tbaa !8
  %21 = load i64, ptr %3, align 8, !tbaa !8
  %22 = udiv i64 -1, %21
  %23 = icmp ult i64 %20, %22
  br i1 %23, label %24, label %30

24:                                               ; preds = %19
  %25 = load i64, ptr %4, align 8, !tbaa !8
  %26 = load i64, ptr %3, align 8, !tbaa !8
  %27 = mul i64 %25, %26
  %28 = load ptr, ptr %2, align 8, !tbaa !3
  %29 = getelementptr inbounds nuw %struct.mi_os_mem_config_s, ptr %28, i32 0, i32 3
  store i64 %27, ptr %29, align 8, !tbaa !14
  br label %30

30:                                               ; preds = %24, %19, %9
  call void @llvm.lifetime.end.p0(i64 8, ptr %4) #6
  br label %31

31:                                               ; preds = %30, %1
  %32 = load ptr, ptr %2, align 8, !tbaa !3
  %33 = getelementptr inbounds nuw %struct.mi_os_mem_config_s, ptr %32, i32 0, i32 1
  store i64 2097152, ptr %33, align 8, !tbaa !15
  %34 = call zeroext i1 @unix_detect_overcommit() #8
  %35 = load ptr, ptr %2, align 8, !tbaa !3
  %36 = getelementptr inbounds nuw %struct.mi_os_mem_config_s, ptr %35, i32 0, i32 5
  %37 = zext i1 %34 to i8
  store i8 %37, ptr %36, align 8, !tbaa !16
  %38 = load ptr, ptr %2, align 8, !tbaa !3
  %39 = getelementptr inbounds nuw %struct.mi_os_mem_config_s, ptr %38, i32 0, i32 6
  store i8 1, ptr %39, align 1, !tbaa !17
  %40 = load ptr, ptr %2, align 8, !tbaa !3
  %41 = getelementptr inbounds nuw %struct.mi_os_mem_config_s, ptr %40, i32 0, i32 7
  store i8 1, ptr %41, align 2, !tbaa !18
  %42 = call zeroext i1 @mi_option_is_enabled(i32 noundef 6) #8
  br i1 %42, label %49, label %43

43:                                               ; preds = %31
  call void @llvm.lifetime.start.p0(i64 4, ptr %5) #6
  store i32 0, ptr %5, align 4, !tbaa !19
  %44 = call i32 (i32, ...) @prctl(i32 noundef 42, ptr noundef %5, i32 noundef 0, i32 noundef 0, i32 noundef 0) #7
  %45 = icmp ne i32 %44, 0
  br i1 %45, label %46, label %48

46:                                               ; preds = %43
  store i32 1, ptr %5, align 4, !tbaa !19
  %47 = call i32 (i32, ...) @prctl(i32 noundef 41, ptr noundef %5, i32 noundef 0, i32 noundef 0, i32 noundef 0) #7
  br label %48

48:                                               ; preds = %46, %43
  call void @llvm.lifetime.end.p0(i64 4, ptr %5) #6
  br label %49

49:                                               ; preds = %48, %31
  call void @llvm.lifetime.end.p0(i64 8, ptr %3) #6
  ret void
}