; Function Attrs: nounwind uwtable
define hidden void @_mi_prim_mem_init(ptr noundef writeonly captures(none) initializes((8, 16), (40, 43)) %0) local_unnamed_addr #0 {
  %2 = alloca [32 x i8], align 16
  %3 = alloca i32, align 4
  %4 = tail call i64 @sysconf(i32 noundef 30) #10
  %5 = icmp sgt i64 %4, 0
  br i1 %5, label %6, label %16

6:                                                ; preds = %1
  store i64 %4, ptr %0, align 8, !tbaa !3
  %7 = getelementptr inbounds nuw i8, ptr %0, i64 16
  store i64 %4, ptr %7, align 8, !tbaa !9
  %8 = tail call i64 @sysconf(i32 noundef 85) #10
  %9 = icmp sgt i64 %8, 0
  br i1 %9, label %10, label %16

10:                                               ; preds = %6
  %11 = udiv i64 -1, %4
  %12 = icmp ult i64 %8, %11
  br i1 %12, label %13, label %16

13:                                               ; preds = %10
  %14 = mul i64 %8, %4
  %15 = getelementptr inbounds nuw i8, ptr %0, i64 24
  store i64 %14, ptr %15, align 8, !tbaa !10
  br label %16

16:                                               ; preds = %6, %10, %13, %1
  %17 = getelementptr inbounds nuw i8, ptr %0, i64 8
  store i64 2097152, ptr %17, align 8, !tbaa !11
  %18 = tail call i64 (i64, ...) @syscall(i64 noundef 2, ptr noundef nonnull @.str.3, i32 noundef 0, i32 noundef 0) #10
  %19 = trunc i64 %18 to i32
  %20 = icmp sgt i32 %19, -1
  br i1 %20, label %21, label %unix_detect_overcommit.exit

21:                                               ; preds = %16
  call void @llvm.lifetime.start.p0(i64 32, ptr nonnull %2) #11
  %22 = call i64 (i64, ...) @syscall(i64 noundef 0, i32 noundef range(i32 0, -2147483648) %19, ptr noundef nonnull %2, i64 noundef 32) #10
  %23 = call i64 (i64, ...) @syscall(i64 noundef 3, i32 noundef range(i32 0, -2147483648) %19) #10
  %24 = icmp slt i64 %22, 1
  %25 = load i8, ptr %2, align 16
  %26 = and i8 %25, -2
  %27 = icmp eq i8 %26, 48
  %.1.i = select i1 %24, i1 true, i1 %27
  call void @llvm.lifetime.end.p0(i64 32, ptr nonnull %2) #11
  %28 = zext i1 %.1.i to i8
  br label %unix_detect_overcommit.exit

unix_detect_overcommit.exit:                      ; preds = %16, %21
  %.0.i = phi i8 [ %28, %21 ], [ 1, %16 ]
  %29 = getelementptr inbounds nuw i8, ptr %0, i64 40
  store i8 %.0.i, ptr %29, align 8, !tbaa !12
  %30 = getelementptr inbounds nuw i8, ptr %0, i64 41
  store i8 1, ptr %30, align 1, !tbaa !13
  %31 = getelementptr inbounds nuw i8, ptr %0, i64 42
  store i8 1, ptr %31, align 2, !tbaa !14
  %32 = call zeroext i1 @mi_option_is_enabled(i32 noundef 6) #10
  br i1 %32, label %38, label %33

33:                                               ; preds = %unix_detect_overcommit.exit
  call void @llvm.lifetime.start.p0(i64 4, ptr nonnull %3) #11
  store i32 0, ptr %3, align 4, !tbaa !15
  %34 = call i32 (i32, ...) @prctl(i32 noundef 42, ptr noundef nonnull %3, i32 noundef 0, i32 noundef 0, i32 noundef 0) #10
  %.not = icmp eq i32 %34, 0
  br i1 %.not, label %37, label %35

35:                                               ; preds = %33
  store i32 1, ptr %3, align 4, !tbaa !15
  %36 = call i32 (i32, ...) @prctl(i32 noundef 41, ptr noundef nonnull %3, i32 noundef 0, i32 noundef 0, i32 noundef 0) #10
  br label %37

37:                                               ; preds = %35, %33
  call void @llvm.lifetime.end.p0(i64 4, ptr nonnull %3) #11
  br label %38

38:                                               ; preds = %37, %unix_detect_overcommit.exit
  ret void
}